target datalayout = "e-m:e-p270:32:32-p271:32:32-p272:64:64-i64:64-i128:128-f80:128-n8:16:32:64-S128"
target triple = "x86_64-pc-linux-gnu"

%struct.ResourceReleaseCallbackItem = type { ptr, ptr, ptr }

@ResourceRelease_callbacks = internal global ptr null, align 8

; Function Attrs: nounwind uwtable
define dso_local void @UnregisterResourceReleaseCallback(ptr noundef %0, ptr noundef %1) #0 {
  %3 = alloca ptr, align 8
  %4 = alloca ptr, align 8
  %5 = alloca ptr, align 8
  %6 = alloca ptr, align 8
  store ptr %0, ptr %3, align 8
  store ptr %1, ptr %4, align 8
  call void @llvm.lifetime.start.p0(i64 8, ptr %5) #6
  call void @llvm.lifetime.start.p0(i64 8, ptr %6) #6
  store ptr null, ptr %6, align 8
  %7 = load ptr, ptr @ResourceRelease_callbacks, align 8
  store ptr %7, ptr %5, align 8
  br label %8

8:                                                ; preds = %39, %2
  %9 = load ptr, ptr %5, align 8
  %10 = icmp ne ptr %9, null
  br i1 %10, label %11, label %44

11:                                               ; preds = %8
  %12 = load ptr, ptr %5, align 8
  %13 = getelementptr inbounds nuw %struct.ResourceReleaseCallbackItem, ptr %12, i32 0, i32 1
  %14 = load ptr, ptr %13, align 8
  %15 = load ptr, ptr %3, align 8
  %16 = icmp eq ptr %14, %15
  br i1 %16, label %17, label %38

17:                                               ; preds = %11
  %18 = load ptr, ptr %5, align 8
  %19 = getelementptr inbounds nuw %struct.ResourceReleaseCallbackItem, ptr %18, i32 0, i32 2
  %20 = load ptr, ptr %19, align 8
  %21 = load ptr, ptr %4, align 8
  %22 = icmp eq ptr %20, %21
  br i1 %22, label %23, label %38

23:                                               ; preds = %17
  %24 = load ptr, ptr %6, align 8
  %25 = icmp ne ptr %24, null
  br i1 %25, label %26, label %32

26:                                               ; preds = %23
  %27 = load ptr, ptr %5, align 8
  %28 = getelementptr inbounds nuw %struct.ResourceReleaseCallbackItem, ptr %27, i32 0, i32 0
  %29 = load ptr, ptr %28, align 8
  %30 = load ptr, ptr %6, align 8
  %31 = getelementptr inbounds nuw %struct.ResourceReleaseCallbackItem, ptr %30, i32 0, i32 0
  store ptr %29, ptr %31, align 8
  br label %36

32:                                               ; preds = %23
  %33 = load ptr, ptr %5, align 8
  %34 = getelementptr inbounds nuw %struct.ResourceReleaseCallbackItem, ptr %33, i32 0, i32 0
  %35 = load ptr, ptr %34, align 8
  store ptr %35, ptr @ResourceRelease_callbacks, align 8
  br label %36

36:                                               ; preds = %32, %26
  %37 = load ptr, ptr %5, align 8
  call void @pfree(ptr noundef %37)
  br label %44

38:                                               ; preds = %17, %11
  br label %39

39:                                               ; preds = %38
  %40 = load ptr, ptr %5, align 8
  store ptr %40, ptr %6, align 8
  %41 = load ptr, ptr %5, align 8
  %42 = getelementptr inbounds nuw %struct.ResourceReleaseCallbackItem, ptr %41, i32 0, i32 0
  %43 = load ptr, ptr %42, align 8
  store ptr %43, ptr %5, align 8
  br label %8, !llvm.loop !17

44:                                               ; preds = %36, %8
  call void @llvm.lifetime.end.p0(i64 8, ptr %6) #6
  call void @llvm.lifetime.end.p0(i64 8, ptr %5) #6
  ret void
}