; Function Attrs: nounwind uwtable
define dso_local void @UnregisterResourceReleaseCallback(ptr noundef readnone captures(address) %0, ptr noundef readnone captures(address) %1) local_unnamed_addr #0 {
  %.01216 = load ptr, ptr @ResourceRelease_callbacks, align 8
  %.not17 = icmp eq ptr %.01216, null
  br i1 %.not17, label %.loopexit, label %.lr.ph

.lr.ph:                                           ; preds = %2, %12
  %.01219 = phi ptr [ %.012, %12 ], [ %.01216, %2 ]
  %.018 = phi ptr [ %.01219, %12 ], [ null, %2 ]
  %3 = getelementptr inbounds nuw i8, ptr %.01219, i64 8
  %4 = load ptr, ptr %3, align 8
  %5 = icmp eq ptr %4, %0
  br i1 %5, label %6, label %12

6:                                                ; preds = %.lr.ph
  %7 = getelementptr inbounds nuw i8, ptr %.01219, i64 16
  %8 = load ptr, ptr %7, align 8
  %9 = icmp eq ptr %8, %1
  br i1 %9, label %10, label %12

10:                                               ; preds = %6
  %.not13 = icmp eq ptr %.018, null
  %11 = load ptr, ptr %.01219, align 8
  %ResourceRelease_callbacks..018.lcssa = select i1 %.not13, ptr @ResourceRelease_callbacks, ptr %.018
  store ptr %11, ptr %ResourceRelease_callbacks..018.lcssa, align 8
  tail call void @pfree(ptr noundef nonnull %.01219) #10
  br label %.loopexit

12:                                               ; preds = %.lr.ph, %6
  %.012 = load ptr, ptr %.01219, align 8
  %.not = icmp eq ptr %.012, null
  br i1 %.not, label %.loopexit, label %.lr.ph, !llvm.loop !19

.loopexit:                                        ; preds = %12, %2, %10
  ret void
}